target datalayout = "e-m:e-p270:32:32-p271:32:32-p272:64:64-i64:64-i128:128-f80:128-n8:16:32:64-S128"
target triple = "x86_64-pc-linux-gnu"

%class.ErrorHandler = type <{ i32, i32, i8, i8, i8, i8, i8, i8, [2 x i8] }>

; Function Attrs: mustprogress nounwind uwtable
define void @_ZN12ErrorHandler5CleanEv(ptr noundef nonnull align 4 dereferenceable(14) %0) #1 align 2 {
  %2 = alloca ptr, align 8
  store ptr %0, ptr %2, align 8
  %3 = load ptr, ptr %2, align 8
  %4 = getelementptr inbounds %class.ErrorHandler, ptr %3, i32 0, i32 0
  store i32 0, ptr %4, align 4
  %5 = getelementptr inbounds %class.ErrorHandler, ptr %3, i32 0, i32 1
  store i32 0, ptr %5, align 4
  %6 = getelementptr inbounds %class.ErrorHandler, ptr %3, i32 0, i32 2
  store i8 1, ptr %6, align 4
  %7 = getelementptr inbounds %class.ErrorHandler, ptr %3, i32 0, i32 3
  store i8 0, ptr %7, align 1
  %8 = getelementptr inbounds %class.ErrorHandler, ptr %3, i32 0, i32 6
  store i8 0, ptr %8, align 4
  %9 = getelementptr inbounds %class.ErrorHandler, ptr %3, i32 0, i32 7
  store i8 0, ptr %9, align 1
  %10 = getelementptr inbounds %class.ErrorHandler, ptr %3, i32 0, i32 4
  store i8 0, ptr %10, align 2
  %11 = getelementptr inbounds %class.ErrorHandler, ptr %3, i32 0, i32 5
  store i8 0, ptr %11, align 1
  ret void
}